target datalayout = "e-m:e-p270:32:32-p271:32:32-p272:64:64-i64:64-i128:128-f80:128-n8:16:32:64-S128"
target triple = "x86_64-pc-linux-gnu"

%"struct.faiss::IndexLSH" = type { %"struct.faiss::IndexFlatCodes", i32, i8, i8, [2 x i8], %"struct.faiss::RandomRotationMatrix", %"class.std::vector.0" }
%"struct.faiss::IndexFlatCodes" = type { %"struct.faiss::Index.base", i64, %"class.std::vector" }
%"struct.faiss::Index.base" = type <{ ptr, i32, [4 x i8], i64, i8, i8, [2 x i8], i32, float }>
%"class.std::vector" = type { %"struct.std::_Vector_base" }
%"struct.std::_Vector_base" = type { %"struct.std::_Vector_base<unsigned char, std::allocator<unsigned char>>::_Vector_impl" }
%"struct.std::_Vector_base<unsigned char, std::allocator<unsigned char>>::_Vector_impl" = type { %"struct.std::_Vector_base<unsigned char, std::allocator<unsigned char>>::_Vector_impl_data" }
%"struct.std::_Vector_base<unsigned char, std::allocator<unsigned char>>::_Vector_impl_data" = type { ptr, ptr, ptr }
%"struct.faiss::RandomRotationMatrix" = type { %"struct.faiss::LinearTransform.base", [7 x i8] }
%"struct.faiss::LinearTransform.base" = type <{ %"struct.faiss::VectorTransform.base", i8, i8, [5 x i8], %"class.std::vector.0", %"class.std::vector.0", i8 }>
%"struct.faiss::VectorTransform.base" = type <{ ptr, i32, i32, i8 }>
%"class.std::vector.0" = type { %"struct.std::_Vector_base.1" }
%"struct.std::_Vector_base.1" = type { %"struct.std::_Vector_base<float, std::allocator<float>>::_Vector_impl" }
%"struct.std::_Vector_base<float, std::allocator<float>>::_Vector_impl" = type { %"struct.std::_Vector_base<float, std::allocator<float>>::_Vector_impl_data" }
%"struct.std::_Vector_base<float, std::allocator<float>>::_Vector_impl_data" = type { ptr, ptr, ptr }
%"class.std::__cxx11::basic_string" = type { %"struct.std::__cxx11::basic_string<char>::_Alloc_hider", i64, %union.anon }
%"struct.std::__cxx11::basic_string<char>::_Alloc_hider" = type { ptr }
%union.anon = type { i64, [8 x i8] }
%"struct.faiss::LinearTransform" = type <{ %"struct.faiss::VectorTransform.base", i8, i8, [5 x i8], %"class.std::vector.0", %"class.std::vector.0", i8, [7 x i8] }>
%"struct.faiss::VectorTransform" = type <{ ptr, i32, i32, i8, [7 x i8] }>
%"class.__gnu_cxx::__normal_iterator" = type { ptr }

@.str = private unnamed_addr constant [19 x i8] c"Error: '%s' failed\00", align 1
@.str.2 = private unnamed_addr constant [108 x i8] c"generated/home/dtcxzyw/WorkSpace/Projects/compilers/llvm-opt-benchmark/bench/faiss/faiss/faiss/IndexLSH.cpp\00", align 1
@_ZTIN5faiss14FaissExceptionE = external constant ptr
@.str.8 = private unnamed_addr constant [19 x i8] c"nbits == vt->d_out\00", align 1
@__PRETTY_FUNCTION__._ZN5faiss8IndexLSH19transfer_thresholdsEPNS_15LinearTransformE = private unnamed_addr constant [61 x i8] c"void faiss::IndexLSH::transfer_thresholds(LinearTransform *)\00", align 1

; Function Attrs: mustprogress nounwind uwtable
define linkonce_odr void @_ZNSt12_Destroy_auxILb1EE9__destroyIPfEEvT_S3_(ptr noundef %0, ptr noundef %1) #0 comdat align 2 {
  %3 = alloca ptr, align 8
  %4 = alloca ptr, align 8
  store ptr %0, ptr %3, align 8
  store ptr %1, ptr %4, align 8
  ret void
}

; Function Attrs: mustprogress uwtable
define linkonce_odr void @_ZSt8_DestroyIPfEvT_S1_(ptr noundef %0, ptr noundef %1) #1 comdat {
  %3 = alloca ptr, align 8
  %4 = alloca ptr, align 8
  store ptr %0, ptr %3, align 8
  store ptr %1, ptr %4, align 8
  %5 = load ptr, ptr %3, align 8
  %6 = load ptr, ptr %4, align 8
  call void @_ZNSt12_Destroy_auxILb1EE9__destroyIPfEEvT_S3_(ptr noundef %5, ptr noundef %6)
  ret void
}

; Function Attrs: noreturn nounwind uwtable
define linkonce_odr hidden void @__clang_call_terminate(ptr noundef %0) #4 comdat {
  %2 = call ptr @__cxa_begin_catch(ptr %0) #11
  call void @_ZSt9terminatev() #15
  unreachable
}

; Function Attrs: mustprogress uwtable
define linkonce_odr void @_ZSt8_DestroyIPffEvT_S1_RSaIT0_E(ptr noundef %0, ptr noundef %1, ptr noundef nonnull align 1 dereferenceable(1) %2) #1 comdat {
  %4 = alloca ptr, align 8
  %5 = alloca ptr, align 8
  %6 = alloca ptr, align 8
  store ptr %0, ptr %4, align 8
  store ptr %1, ptr %5, align 8
  store ptr %2, ptr %6, align 8
  %7 = load ptr, ptr %4, align 8
  %8 = load ptr, ptr %5, align 8
  call void @_ZSt8_DestroyIPfEvT_S1_(ptr noundef %7, ptr noundef %8)
  ret void
}

; Function Attrs: mustprogress nounwind uwtable
define linkonce_odr noundef nonnull align 1 dereferenceable(1) ptr @_ZNSt12_Vector_baseIfSaIfEE19_M_get_Tp_allocatorEv(ptr noundef nonnull align 8 dereferenceable(24) %0) #0 comdat align 2 {
  %2 = alloca ptr, align 8
  store ptr %0, ptr %2, align 8
  %3 = load ptr, ptr %2, align 8
  %4 = getelementptr inbounds %"struct.std::_Vector_base.1", ptr %3, i32 0, i32 0
  ret ptr %4
}

; Function Attrs: mustprogress nounwind uwtable
define linkonce_odr void @_ZN9__gnu_cxx17__normal_iteratorIPfSt6vectorIfSaIfEEEC2ERKS1_(ptr noundef nonnull align 8 dereferenceable(8) %0, ptr noundef nonnull align 8 dereferenceable(8) %1) unnamed_addr #0 comdat align 2 {
  %3 = alloca ptr, align 8
  %4 = alloca ptr, align 8
  store ptr %0, ptr %3, align 8
  store ptr %1, ptr %4, align 8
  %5 = load ptr, ptr %3, align 8
  %6 = getelementptr inbounds %"class.__gnu_cxx::__normal_iterator", ptr %5, i32 0, i32 0
  %7 = load ptr, ptr %4, align 8
  %8 = load ptr, ptr %7, align 8
  store ptr %8, ptr %6, align 8
  ret void
}

; Function Attrs: mustprogress nounwind uwtable
define linkonce_odr void @_ZNSt6vectorIfSaIfEE15_M_erase_at_endEPf(ptr noundef nonnull align 8 dereferenceable(24) %0, ptr noundef %1) #0 comdat align 2 personality ptr @__gxx_personality_v0 {
  %3 = alloca ptr, align 8
  %4 = alloca ptr, align 8
  %5 = alloca i64, align 8
  store ptr %0, ptr %3, align 8
  store ptr %1, ptr %4, align 8
  %6 = load ptr, ptr %3, align 8
  %7 = getelementptr inbounds %"struct.std::_Vector_base.1", ptr %6, i32 0, i32 0
  %8 = getelementptr inbounds %"struct.std::_Vector_base<float, std::allocator<float>>::_Vector_impl_data", ptr %7, i32 0, i32 1
  %9 = load ptr, ptr %8, align 8
  %10 = load ptr, ptr %4, align 8
  %11 = ptrtoint ptr %9 to i64
  %12 = ptrtoint ptr %10 to i64
  %13 = sub i64 %11, %12
  %14 = sdiv exact i64 %13, 4
  store i64 %14, ptr %5, align 8
  %15 = load i64, ptr %5, align 8
  %16 = icmp ne i64 %15, 0
  br i1 %16, label %17, label %27

17:                                               ; preds = %2
  %18 = load ptr, ptr %4, align 8
  %19 = getelementptr inbounds %"struct.std::_Vector_base.1", ptr %6, i32 0, i32 0
  %20 = getelementptr inbounds %"struct.std::_Vector_base<float, std::allocator<float>>::_Vector_impl_data", ptr %19, i32 0, i32 1
  %21 = load ptr, ptr %20, align 8
  %22 = call noundef nonnull align 1 dereferenceable(1) ptr @_ZNSt12_Vector_baseIfSaIfEE19_M_get_Tp_allocatorEv(ptr noundef nonnull align 8 dereferenceable(24) %6) #11
  invoke void @_ZSt8_DestroyIPffEvT_S1_RSaIT0_E(ptr noundef %18, ptr noundef %21, ptr noundef nonnull align 1 dereferenceable(1) %22)
          to label %23 unwind label %28

23:                                               ; preds = %17
  %24 = load ptr, ptr %4, align 8
  %25 = getelementptr inbounds %"struct.std::_Vector_base.1", ptr %6, i32 0, i32 0
  %26 = getelementptr inbounds %"struct.std::_Vector_base<float, std::allocator<float>>::_Vector_impl_data", ptr %25, i32 0, i32 1
  store ptr %24, ptr %26, align 8
  br label %27

27:                                               ; preds = %23, %2
  ret void

28:                                               ; preds = %17
  %29 = landingpad { ptr, i32 }
          catch ptr null
  %30 = extractvalue { ptr, i32 } %29, 0
  call void @__clang_call_terminate(ptr %30) #15
  unreachable
}

; Function Attrs: mustprogress nounwind uwtable
define linkonce_odr ptr @_ZNSt6vectorIfSaIfEE3endEv(ptr noundef nonnull align 8 dereferenceable(24) %0) #0 comdat align 2 {
  %2 = alloca %"class.__gnu_cxx::__normal_iterator", align 8
  %3 = alloca ptr, align 8
  store ptr %0, ptr %3, align 8
  %4 = load ptr, ptr %3, align 8
  %5 = getelementptr inbounds %"struct.std::_Vector_base.1", ptr %4, i32 0, i32 0
  %6 = getelementptr inbounds %"struct.std::_Vector_base<float, std::allocator<float>>::_Vector_impl_data", ptr %5, i32 0, i32 1
  call void @_ZN9__gnu_cxx17__normal_iteratorIPfSt6vectorIfSaIfEEEC2ERKS1_(ptr noundef nonnull align 8 dereferenceable(8) %2, ptr noundef nonnull align 8 dereferenceable(8) %6) #11
  %7 = getelementptr inbounds %"class.__gnu_cxx::__normal_iterator", ptr %2, i32 0, i32 0
  %8 = load ptr, ptr %7, align 8
  ret ptr %8
}

; Function Attrs: mustprogress nounwind uwtable
define linkonce_odr noundef i64 @_ZNKSt6vectorIfSaIfEE4sizeEv(ptr noundef nonnull align 8 dereferenceable(24) %0) #0 comdat align 2 {
  %2 = alloca ptr, align 8
  store ptr %0, ptr %2, align 8
  %3 = load ptr, ptr %2, align 8
  %4 = getelementptr inbounds %"struct.std::_Vector_base.1", ptr %3, i32 0, i32 0
  %5 = getelementptr inbounds %"struct.std::_Vector_base<float, std::allocator<float>>::_Vector_impl_data", ptr %4, i32 0, i32 1
  %6 = load ptr, ptr %5, align 8
  %7 = getelementptr inbounds %"struct.std::_Vector_base.1", ptr %3, i32 0, i32 0
  %8 = getelementptr inbounds %"struct.std::_Vector_base<float, std::allocator<float>>::_Vector_impl_data", ptr %7, i32 0, i32 0
  %9 = load ptr, ptr %8, align 8
  %10 = ptrtoint ptr %6 to i64
  %11 = ptrtoint ptr %9 to i64
  %12 = sub i64 %10, %11
  %13 = sdiv exact i64 %12, 4
  ret i64 %13
}

; Function Attrs: mustprogress nounwind uwtable
define linkonce_odr void @_ZNSt6vectorIfSaIfEE5clearEv(ptr noundef nonnull align 8 dereferenceable(24) %0) #0 comdat align 2 {
  %2 = alloca ptr, align 8
  store ptr %0, ptr %2, align 8
  %3 = load ptr, ptr %2, align 8
  %4 = getelementptr inbounds %"struct.std::_Vector_base.1", ptr %3, i32 0, i32 0
  %5 = getelementptr inbounds %"struct.std::_Vector_base<float, std::allocator<float>>::_Vector_impl_data", ptr %4, i32 0, i32 0
  %6 = load ptr, ptr %5, align 8
  call void @_ZNSt6vectorIfSaIfEE15_M_erase_at_endEPf(ptr noundef nonnull align 8 dereferenceable(24) %3, ptr noundef %6) #11
  ret void
}

; Function Attrs: mustprogress nounwind uwtable
define linkonce_odr noundef nonnull align 4 dereferenceable(4) ptr @_ZNSt6vectorIfSaIfEEixEm(ptr noundef nonnull align 8 dereferenceable(24) %0, i64 noundef %1) #0 comdat align 2 {
  %3 = alloca ptr, align 8
  %4 = alloca i64, align 8
  store ptr %0, ptr %3, align 8
  store i64 %1, ptr %4, align 8
  %5 = load ptr, ptr %3, align 8
  %6 = getelementptr inbounds %"struct.std::_Vector_base.1", ptr %5, i32 0, i32 0
  %7 = getelementptr inbounds %"struct.std::_Vector_base<float, std::allocator<float>>::_Vector_impl_data", ptr %6, i32 0, i32 0
  %8 = load ptr, ptr %7, align 8
  %9 = load i64, ptr %4, align 8
  %10 = getelementptr inbounds float, ptr %8, i64 %9
  ret ptr %10
}

; Function Attrs: mustprogress uwtable
define linkonce_odr void @_ZNSt6vectorIfSaIfEE6resizeEmRKf(ptr noundef nonnull align 8 dereferenceable(24) %0, i64 noundef %1, ptr noundef nonnull align 4 dereferenceable(4) %2) #1 comdat align 2 {
  %4 = alloca ptr, align 8
  %5 = alloca i64, align 8
  %6 = alloca ptr, align 8
  %7 = alloca %"class.__gnu_cxx::__normal_iterator", align 8
  store ptr %0, ptr %4, align 8
  store i64 %1, ptr %5, align 8
  store ptr %2, ptr %6, align 8
  %8 = load ptr, ptr %4, align 8
  %9 = load i64, ptr %5, align 8
  %10 = call noundef i64 @_ZNKSt6vectorIfSaIfEE4sizeEv(ptr noundef nonnull align 8 dereferenceable(24) %8) #11
  %11 = icmp ugt i64 %9, %10
  br i1 %11, label %12, label %21

12:                                               ; preds = %3
  %13 = call ptr @_ZNSt6vectorIfSaIfEE3endEv(ptr noundef nonnull align 8 dereferenceable(24) %8) #11
  %14 = getelementptr inbounds %"class.__gnu_cxx::__normal_iterator", ptr %7, i32 0, i32 0
  store ptr %13, ptr %14, align 8
  %15 = load i64, ptr %5, align 8
  %16 = call noundef i64 @_ZNKSt6vectorIfSaIfEE4sizeEv(ptr noundef nonnull align 8 dereferenceable(24) %8) #11
  %17 = sub i64 %15, %16
  %18 = load ptr, ptr %6, align 8
  %19 = getelementptr inbounds %"class.__gnu_cxx::__normal_iterator", ptr %7, i32 0, i32 0
  %20 = load ptr, ptr %19, align 8
  call void @_ZNSt6vectorIfSaIfEE14_M_fill_insertEN9__gnu_cxx17__normal_iteratorIPfS1_EEmRKf(ptr noundef nonnull align 8 dereferenceable(24) %8, ptr %20, i64 noundef %17, ptr noundef nonnull align 4 dereferenceable(4) %18)
  br label %32

21:                                               ; preds = %3
  %22 = load i64, ptr %5, align 8
  %23 = call noundef i64 @_ZNKSt6vectorIfSaIfEE4sizeEv(ptr noundef nonnull align 8 dereferenceable(24) %8) #11
  %24 = icmp ult i64 %22, %23
  br i1 %24, label %25, label %31

25:                                               ; preds = %21
  %26 = getelementptr inbounds %"struct.std::_Vector_base.1", ptr %8, i32 0, i32 0
  %27 = getelementptr inbounds %"struct.std::_Vector_base<float, std::allocator<float>>::_Vector_impl_data", ptr %26, i32 0, i32 0
  %28 = load ptr, ptr %27, align 8
  %29 = load i64, ptr %5, align 8
  %30 = getelementptr inbounds float, ptr %28, i64 %29
  call void @_ZNSt6vectorIfSaIfEE15_M_erase_at_endEPf(ptr noundef nonnull align 8 dereferenceable(24) %8, ptr noundef %30) #11
  br label %31

31:                                               ; preds = %25, %21
  br label %32

32:                                               ; preds = %31, %12
  ret void
}

; Function Attrs: mustprogress uwtable
define void @_ZN5faiss8IndexLSH19transfer_thresholdsEPNS_15LinearTransformE(ptr noundef nonnull align 8 dereferenceable(184) %0, ptr noundef %1) #1 align 2 personality ptr @__gxx_personality_v0 {
  %3 = alloca ptr, align 8
  %4 = alloca ptr, align 8
  %5 = alloca %"class.std::__cxx11::basic_string", align 8
  %6 = alloca i32, align 4
  %7 = alloca ptr, align 8
  %8 = alloca i32, align 4
  %9 = alloca float, align 4
  %10 = alloca i32, align 4
  store ptr %0, ptr %3, align 8
  store ptr %1, ptr %4, align 8
  %11 = load ptr, ptr %3, align 8
  %12 = getelementptr inbounds %"struct.faiss::IndexLSH", ptr %11, i32 0, i32 3
  %13 = load i8, ptr %12, align 1
  %14 = trunc i8 %13 to i1
  br i1 %14, label %16, label %15

15:                                               ; preds = %2
  br label %86

16:                                               ; preds = %2
  br label %17

17:                                               ; preds = %16
  %18 = getelementptr inbounds %"struct.faiss::IndexLSH", ptr %11, i32 0, i32 1
  %19 = load i32, ptr %18, align 8
  %20 = load ptr, ptr %4, align 8
  %21 = getelementptr inbounds %"struct.faiss::VectorTransform", ptr %20, i32 0, i32 2
  %22 = load i32, ptr %21, align 4
  %23 = icmp eq i32 %19, %22
  br i1 %23, label %47, label %24

24:                                               ; preds = %17
  br label %25

25:                                               ; preds = %24
  call void @_ZNSt7__cxx1112basic_stringIcSt11char_traitsIcESaIcEEC1Ev(ptr noundef nonnull align 8 dereferenceable(32) %5) #11
  %26 = call i32 (ptr, i64, ptr, ...) @snprintf(ptr noundef null, i64 noundef 0, ptr noundef @.str, ptr noundef @.str.8) #11
  store i32 %26, ptr %6, align 4
  %27 = load i32, ptr %6, align 4
  %28 = add nsw i32 %27, 1
  %29 = sext i32 %28 to i64
  invoke void @_ZNSt7__cxx1112basic_stringIcSt11char_traitsIcESaIcEE6resizeEm(ptr noundef nonnull align 8 dereferenceable(32) %5, i64 noundef %29)
          to label %30 unwind label %37

30:                                               ; preds = %25
  %31 = invoke noundef nonnull align 1 dereferenceable(1) ptr @_ZNSt7__cxx1112basic_stringIcSt11char_traitsIcESaIcEEixEm(ptr noundef nonnull align 8 dereferenceable(32) %5, i64 noundef 0)
          to label %32 unwind label %37

32:                                               ; preds = %30
  %33 = call noundef i64 @_ZNKSt7__cxx1112basic_stringIcSt11char_traitsIcESaIcEE4sizeEv(ptr noundef nonnull align 8 dereferenceable(32) %5) #11
  %34 = call i32 (ptr, i64, ptr, ...) @snprintf(ptr noundef %31, i64 noundef %33, ptr noundef @.str, ptr noundef @.str.8) #11
  %35 = call ptr @__cxa_allocate_exception(i64 40) #11
  invoke void @_ZN5faiss14FaissExceptionC1ERKNSt7__cxx1112basic_stringIcSt11char_traitsIcESaIcEEEPKcSA_i(ptr noundef nonnull align 8 dereferenceable(40) %35, ptr noundef nonnull align 8 dereferenceable(32) %5, ptr noundef @__PRETTY_FUNCTION__._ZN5faiss8IndexLSH19transfer_thresholdsEPNS_15LinearTransformE, ptr noundef @.str.2, i32 noundef 133)
          to label %36 unwind label %41

36:                                               ; preds = %32
  invoke void @__cxa_throw(ptr %35, ptr @_ZTIN5faiss14FaissExceptionE, ptr @_ZN5faiss14FaissExceptionD2Ev) #14
          to label %92 unwind label %37

37:                                               ; preds = %36, %30, %25
  %38 = landingpad { ptr, i32 }
          cleanup
  %39 = extractvalue { ptr, i32 } %38, 0
  store ptr %39, ptr %7, align 8
  %40 = extractvalue { ptr, i32 } %38, 1
  store i32 %40, ptr %8, align 4
  br label %45

41:                                               ; preds = %32
  %42 = landingpad { ptr, i32 }
          cleanup
  %43 = extractvalue { ptr, i32 } %42, 0
  store ptr %43, ptr %7, align 8
  %44 = extractvalue { ptr, i32 } %42, 1
  store i32 %44, ptr %8, align 4
  call void @__cxa_free_exception(ptr %35) #11
  br label %45

45:                                               ; preds = %41, %37
  call void @_ZNSt7__cxx1112basic_stringIcSt11char_traitsIcESaIcEED1Ev(ptr noundef nonnull align 8 dereferenceable(32) %5) #11
  br label %87

46:                                               ; No predecessors!
  br label %47

47:                                               ; preds = %46, %17
  br label %48

48:                                               ; preds = %47
  %49 = load ptr, ptr %4, align 8
  %50 = getelementptr inbounds %"struct.faiss::LinearTransform", ptr %49, i32 0, i32 1
  %51 = load i8, ptr %50, align 1
  %52 = trunc i8 %51 to i1
  br i1 %52, label %61, label %53

53:                                               ; preds = %48
  %54 = load ptr, ptr %4, align 8
  %55 = getelementptr inbounds %"struct.faiss::LinearTransform", ptr %54, i32 0, i32 5
  %56 = getelementptr inbounds %"struct.faiss::IndexLSH", ptr %11, i32 0, i32 1
  %57 = load i32, ptr %56, align 8
  %58 = sext i32 %57 to i64
  store float 0.000000e+00, ptr %9, align 4
  call void @_ZNSt6vectorIfSaIfEE6resizeEmRKf(ptr noundef nonnull align 8 dereferenceable(24) %55, i64 noundef %58, ptr noundef nonnull align 4 dereferenceable(4) %9)
  %59 = load ptr, ptr %4, align 8
  %60 = getelementptr inbounds %"struct.faiss::LinearTransform", ptr %59, i32 0, i32 1
  store i8 1, ptr %60, align 1
  br label %61

61:                                               ; preds = %53, %48
  store i32 0, ptr %10, align 4
  br label %62

62:                                               ; preds = %80, %61
  %63 = load i32, ptr %10, align 4
  %64 = getelementptr inbounds %"struct.faiss::IndexLSH", ptr %11, i32 0, i32 1
  %65 = load i32, ptr %64, align 8
  %66 = icmp slt i32 %63, %65
  br i1 %66, label %67, label %83

67:                                               ; preds = %62
  %68 = getelementptr inbounds %"struct.faiss::IndexLSH", ptr %11, i32 0, i32 6
  %69 = load i32, ptr %10, align 4
  %70 = sext i32 %69 to i64
  %71 = call noundef nonnull align 4 dereferenceable(4) ptr @_ZNSt6vectorIfSaIfEEixEm(ptr noundef nonnull align 8 dereferenceable(24) %68, i64 noundef %70) #11
  %72 = load float, ptr %71, align 4
  %73 = load ptr, ptr %4, align 8
  %74 = getelementptr inbounds %"struct.faiss::LinearTransform", ptr %73, i32 0, i32 5
  %75 = load i32, ptr %10, align 4
  %76 = sext i32 %75 to i64
  %77 = call noundef nonnull align 4 dereferenceable(4) ptr @_ZNSt6vectorIfSaIfEEixEm(ptr noundef nonnull align 8 dereferenceable(24) %74, i64 noundef %76) #11
  %78 = load float, ptr %77, align 4
  %79 = fsub float %78, %72
  store float %79, ptr %77, align 4
  br label %80

80:                                               ; preds = %67
  %81 = load i32, ptr %10, align 4
  %82 = add nsw i32 %81, 1
  store i32 %82, ptr %10, align 4
  br label %62, !llvm.loop !30

83:                                               ; preds = %62
  %84 = getelementptr inbounds %"struct.faiss::IndexLSH", ptr %11, i32 0, i32 3
  store i8 0, ptr %84, align 1
  %85 = getelementptr inbounds %"struct.faiss::IndexLSH", ptr %11, i32 0, i32 6
  call void @_ZNSt6vectorIfSaIfEE5clearEv(ptr noundef nonnull align 8 dereferenceable(24) %85) #11
  br label %86

86:                                               ; preds = %83, %15
  ret void

87:                                               ; preds = %45
  %88 = load ptr, ptr %7, align 8
  %89 = load i32, ptr %8, align 4
  %90 = insertvalue { ptr, i32 } poison, ptr %88, 0
  %91 = insertvalue { ptr, i32 } %90, i32 %89, 1
  resume { ptr, i32 } %91

92:                                               ; preds = %36
  unreachable
}