; Function Attrs: mustprogress uwtable
define void @_ZN5faiss8IndexLSH19transfer_thresholdsEPNS_15LinearTransformE(ptr nocapture noundef nonnull align 8 dereferenceable(184) %0, ptr noundef %1) local_unnamed_addr #1 align 2 personality ptr @__gxx_personality_v0 {
  %3 = alloca %"class.std::__cxx11::basic_string", align 8
  %4 = alloca float, align 4
  %5 = getelementptr inbounds i8, ptr %0, i64 77
  %6 = load i8, ptr %5, align 1
  %7 = and i8 %6, 1
  %.not = icmp eq i8 %7, 0
  br i1 %.not, label %_ZNSt6vectorIfSaIfEE5clearEv.exit, label %8

8:                                                ; preds = %2
  %9 = getelementptr inbounds i8, ptr %0, i64 72
  %10 = load i32, ptr %9, align 8
  %11 = getelementptr inbounds i8, ptr %1, i64 12
  %12 = load i32, ptr %11, align 4
  %13 = icmp eq i32 %10, %12
  br i1 %13, label %30, label %14

14:                                               ; preds = %8
  call void @_ZNSt7__cxx1112basic_stringIcSt11char_traitsIcESaIcEEC1Ev(ptr noundef nonnull align 8 dereferenceable(32) %3) #15
  %15 = call i32 (ptr, i64, ptr, ...) @snprintf(ptr noundef null, i64 noundef 0, ptr noundef nonnull @.str, ptr noundef nonnull @.str.8) #15
  %16 = add nsw i32 %15, 1
  %17 = sext i32 %16 to i64
  invoke void @_ZNSt7__cxx1112basic_stringIcSt11char_traitsIcESaIcEE6resizeEm(ptr noundef nonnull align 8 dereferenceable(32) %3, i64 noundef %17)
          to label %18 unwind label %25

18:                                               ; preds = %14
  %19 = invoke noundef nonnull align 1 dereferenceable(1) ptr @_ZNSt7__cxx1112basic_stringIcSt11char_traitsIcESaIcEEixEm(ptr noundef nonnull align 8 dereferenceable(32) %3, i64 noundef 0)
          to label %20 unwind label %25

20:                                               ; preds = %18
  %21 = call noundef i64 @_ZNKSt7__cxx1112basic_stringIcSt11char_traitsIcESaIcEE4sizeEv(ptr noundef nonnull align 8 dereferenceable(32) %3) #15
  %22 = call i32 (ptr, i64, ptr, ...) @snprintf(ptr noundef nonnull %19, i64 noundef %21, ptr noundef nonnull @.str, ptr noundef nonnull @.str.8) #15
  %23 = call ptr @__cxa_allocate_exception(i64 40) #15
  invoke void @_ZN5faiss14FaissExceptionC1ERKNSt7__cxx1112basic_stringIcSt11char_traitsIcESaIcEEEPKcSA_i(ptr noundef nonnull align 8 dereferenceable(40) %23, ptr noundef nonnull align 8 dereferenceable(32) %3, ptr noundef nonnull @__PRETTY_FUNCTION__._ZN5faiss8IndexLSH19transfer_thresholdsEPNS_15LinearTransformE, ptr noundef nonnull @.str.2, i32 noundef 133)
          to label %24 unwind label %27

24:                                               ; preds = %20
  invoke void @__cxa_throw(ptr nonnull %23, ptr nonnull @_ZTIN5faiss14FaissExceptionE, ptr nonnull @_ZN5faiss14FaissExceptionD2Ev) #17
          to label %73 unwind label %25

25:                                               ; preds = %24, %18, %14
  %26 = landingpad { ptr, i32 }
          cleanup
  br label %29

27:                                               ; preds = %20
  %28 = landingpad { ptr, i32 }
          cleanup
  call void @__cxa_free_exception(ptr %23) #15
  br label %29

29:                                               ; preds = %27, %25
  %.pn = phi { ptr, i32 } [ %26, %25 ], [ %28, %27 ]
  call void @_ZNSt7__cxx1112basic_stringIcSt11char_traitsIcESaIcEED1Ev(ptr noundef nonnull align 8 dereferenceable(32) %3) #15
  resume { ptr, i32 } %.pn

30:                                               ; preds = %8
  %31 = getelementptr inbounds i8, ptr %1, i64 17
  %32 = load i8, ptr %31, align 1
  %33 = and i8 %32, 1
  %.not16 = icmp eq i8 %33, 0
  br i1 %.not16, label %34, label %52

34:                                               ; preds = %30
  %35 = getelementptr inbounds i8, ptr %1, i64 48
  %36 = sext i32 %10 to i64
  store float 0.000000e+00, ptr %4, align 4
  %37 = getelementptr inbounds i8, ptr %1, i64 56
  %38 = load ptr, ptr %37, align 8
  %39 = load ptr, ptr %35, align 8
  %40 = ptrtoint ptr %38 to i64
  %41 = ptrtoint ptr %39 to i64
  %42 = sub i64 %40, %41
  %43 = ashr exact i64 %42, 2
  %44 = icmp ult i64 %43, %36
  br i1 %44, label %45, label %47

45:                                               ; preds = %34
  %46 = sub nsw i64 %36, %43
  call void @_ZNSt6vectorIfSaIfEE14_M_fill_insertEN9__gnu_cxx17__normal_iteratorIPfS1_EEmRKf(ptr noundef nonnull align 8 dereferenceable(24) %35, ptr %38, i64 noundef %46, ptr noundef nonnull align 4 dereferenceable(4) %4)
  br label %_ZNSt6vectorIfSaIfEE6resizeEmRKf.exit

47:                                               ; preds = %34
  %48 = icmp ugt i64 %43, %36
  br i1 %48, label %49, label %_ZNSt6vectorIfSaIfEE6resizeEmRKf.exit

49:                                               ; preds = %47
  %50 = getelementptr inbounds float, ptr %39, i64 %36
  %.not.i.i = icmp eq ptr %38, %50
  br i1 %.not.i.i, label %_ZNSt6vectorIfSaIfEE6resizeEmRKf.exit, label %51

51:                                               ; preds = %49
  store ptr %50, ptr %37, align 8
  br label %_ZNSt6vectorIfSaIfEE6resizeEmRKf.exit

_ZNSt6vectorIfSaIfEE6resizeEmRKf.exit:            ; preds = %45, %47, %49, %51
  store i8 1, ptr %31, align 1
  %.pre = load i32, ptr %9, align 8
  br label %52

52:                                               ; preds = %_ZNSt6vectorIfSaIfEE6resizeEmRKf.exit, %30
  %53 = phi i32 [ %.pre, %_ZNSt6vectorIfSaIfEE6resizeEmRKf.exit ], [ %10, %30 ]
  %54 = icmp sgt i32 %53, 0
  br i1 %54, label %.lr.ph, label %._crit_edge

.lr.ph:                                           ; preds = %52
  %55 = getelementptr inbounds i8, ptr %0, i64 160
  %56 = getelementptr inbounds i8, ptr %1, i64 48
  br label %57

57:                                               ; preds = %.lr.ph, %57
  %indvars.iv = phi i64 [ 0, %.lr.ph ], [ %indvars.iv.next, %57 ]
  %58 = load ptr, ptr %55, align 8
  %59 = getelementptr inbounds float, ptr %58, i64 %indvars.iv
  %60 = load float, ptr %59, align 4
  %61 = load ptr, ptr %56, align 8
  %62 = getelementptr inbounds float, ptr %61, i64 %indvars.iv
  %63 = load float, ptr %62, align 4
  %64 = fsub float %63, %60
  store float %64, ptr %62, align 4
  %indvars.iv.next = add nuw nsw i64 %indvars.iv, 1
  %65 = load i32, ptr %9, align 8
  %66 = sext i32 %65 to i64
  %67 = icmp slt i64 %indvars.iv.next, %66
  br i1 %67, label %57, label %._crit_edge, !llvm.loop !30

._crit_edge:                                      ; preds = %57, %52
  store i8 0, ptr %5, align 1
  %68 = getelementptr inbounds i8, ptr %0, i64 160
  %69 = load ptr, ptr %68, align 8
  %70 = getelementptr inbounds i8, ptr %0, i64 168
  %71 = load ptr, ptr %70, align 8
  %.not.i.i17 = icmp eq ptr %71, %69
  br i1 %.not.i.i17, label %_ZNSt6vectorIfSaIfEE5clearEv.exit, label %72

72:                                               ; preds = %._crit_edge
  store ptr %69, ptr %70, align 8
  br label %_ZNSt6vectorIfSaIfEE5clearEv.exit

_ZNSt6vectorIfSaIfEE5clearEv.exit:                ; preds = %72, %._crit_edge, %2
  ret void

73:                                               ; preds = %24
  unreachable
}